target datalayout = "e-m:e-p270:32:32-p271:32:32-p272:64:64-i64:64-i128:128-f80:128-n8:16:32:64-S128"
target triple = "x86_64-pc-linux-gnu"

%struct.TupleTableSlotOps = type { i64, ptr, ptr, ptr, ptr, ptr, ptr, ptr, ptr, ptr, ptr, ptr, ptr }
%struct.WalReceiverFunctionsType = type { ptr, ptr, ptr, ptr, ptr, ptr, ptr, ptr, ptr, ptr, ptr, ptr, ptr, ptr, ptr, ptr, ptr }
%struct.List = type { i32, i32, i32, ptr, [0 x %union.ListCell] }
%union.ListCell = type { ptr }
%struct.StringInfoData = type { ptr, i32, i32, i32 }
%struct.WalRcvExecResult = type { i32, i32, ptr, ptr, ptr }
%struct.ItemPointerData = type { %struct.BlockIdData, i16 }
%struct.BlockIdData = type { i16, i16 }
%struct.TupleTableSlot = type { i32, i16, i16, ptr, ptr, ptr, ptr, ptr, %struct.ItemPointerData, i32 }

@.str.4 = private unnamed_addr constant [19 x i8] c"subscriptioncmds.c\00", align 1
@WalReceiverFunctions = external global ptr, align 8
@.str.58 = private unnamed_addr constant [5 x i8] c"none\00", align 1
@TTSOpsMinimalTuple = external constant %struct.TupleTableSlotOps, align 8
@__const.check_publications_origin.tableRow = private unnamed_addr constant [1 x i32] [i32 25], align 4
@.str.92 = private unnamed_addr constant [3 x i8] c")\0A\00", align 1
@.str.93 = private unnamed_addr constant [49 x i8] c"AND NOT (N.nspname = '%s' AND C.relname = '%s')\0A\00", align 1
@.str.94 = private unnamed_addr constant [67 x i8] c"could not receive list of replicated tables from the publisher: %s\00", align 1
@__func__.check_publications_origin = private unnamed_addr constant [26 x i8] c"check_publications_origin\00", align 1
@.str.95 = private unnamed_addr constant [105 x i8] c"subscription \22%s\22 requested copy_data with origin = NONE but might copy data that had a different origin\00", align 1
@.str.96 = private unnamed_addr constant [129 x i8] c"The subscription being created subscribes to a publication (%s) that contains tables that are written to by other subscriptions.\00", align 1
@.str.97 = private unnamed_addr constant [127 x i8] c"The subscription being created subscribes to publications (%s) that contain tables that are written to by other subscriptions.\00", align 1
@.str.98 = private unnamed_addr constant [91 x i8] c"Verify that initial data copied from the publisher tables did not come from other origins.\00", align 1

; Function Attrs: inlinehint nounwind uwtable
define internal void @slot_getsomeattrs(ptr noundef %0, i32 noundef %1) #5 {
  %3 = alloca ptr, align 8
  %4 = alloca i32, align 4
  store ptr %0, ptr %3, align 8
  store i32 %1, ptr %4, align 4
  %5 = load ptr, ptr %3, align 8
  %6 = getelementptr inbounds nuw %struct.TupleTableSlot, ptr %5, i32 0, i32 2
  %7 = load i16, ptr %6, align 2
  %8 = sext i16 %7 to i32
  %9 = load i32, ptr %4, align 4
  %10 = icmp slt i32 %8, %9
  br i1 %10, label %11, label %14

11:                                               ; preds = %2
  %12 = load ptr, ptr %3, align 8
  %13 = load i32, ptr %4, align 4
  call void @slot_getsomeattrs_int(ptr noundef %12, i32 noundef %13)
  br label %14

14:                                               ; preds = %11, %2
  ret void
}

; Function Attrs: inlinehint nounwind uwtable
define internal void @walrcv_clear_result(ptr noundef %0) #5 {
  %2 = alloca ptr, align 8
  store ptr %0, ptr %2, align 8
  %3 = load ptr, ptr %2, align 8
  %4 = icmp ne ptr %3, null
  br i1 %4, label %6, label %5

5:                                                ; preds = %1
  br label %35

6:                                                ; preds = %1
  %7 = load ptr, ptr %2, align 8
  %8 = getelementptr inbounds nuw %struct.WalRcvExecResult, ptr %7, i32 0, i32 2
  %9 = load ptr, ptr %8, align 8
  %10 = icmp ne ptr %9, null
  br i1 %10, label %11, label %15

11:                                               ; preds = %6
  %12 = load ptr, ptr %2, align 8
  %13 = getelementptr inbounds nuw %struct.WalRcvExecResult, ptr %12, i32 0, i32 2
  %14 = load ptr, ptr %13, align 8
  call void @pfree(ptr noundef %14)
  br label %15

15:                                               ; preds = %11, %6
  %16 = load ptr, ptr %2, align 8
  %17 = getelementptr inbounds nuw %struct.WalRcvExecResult, ptr %16, i32 0, i32 3
  %18 = load ptr, ptr %17, align 8
  %19 = icmp ne ptr %18, null
  br i1 %19, label %20, label %24

20:                                               ; preds = %15
  %21 = load ptr, ptr %2, align 8
  %22 = getelementptr inbounds nuw %struct.WalRcvExecResult, ptr %21, i32 0, i32 3
  %23 = load ptr, ptr %22, align 8
  call void @tuplestore_end(ptr noundef %23)
  br label %24

24:                                               ; preds = %20, %15
  %25 = load ptr, ptr %2, align 8
  %26 = getelementptr inbounds nuw %struct.WalRcvExecResult, ptr %25, i32 0, i32 4
  %27 = load ptr, ptr %26, align 8
  %28 = icmp ne ptr %27, null
  br i1 %28, label %29, label %33

29:                                               ; preds = %24
  %30 = load ptr, ptr %2, align 8
  %31 = getelementptr inbounds nuw %struct.WalRcvExecResult, ptr %30, i32 0, i32 4
  %32 = load ptr, ptr %31, align 8
  call void @FreeTupleDesc(ptr noundef %32)
  br label %33

33:                                               ; preds = %29, %24
  %34 = load ptr, ptr %2, align 8
  call void @pfree(ptr noundef %34)
  br label %35

35:                                               ; preds = %33, %5
  ret void
}

; Function Attrs: inlinehint nounwind uwtable
define internal i32 @list_length(ptr noundef %0) #5 {
  %2 = alloca ptr, align 8
  store ptr %0, ptr %2, align 8
  %3 = load ptr, ptr %2, align 8
  %4 = icmp ne ptr %3, null
  br i1 %4, label %5, label %9

5:                                                ; preds = %1
  %6 = load ptr, ptr %2, align 8
  %7 = getelementptr inbounds nuw %struct.List, ptr %6, i32 0, i32 1
  %8 = load i32, ptr %7, align 4
  br label %10

9:                                                ; preds = %1
  br label %10

10:                                               ; preds = %9, %5
  %11 = phi i32 [ %8, %5 ], [ 0, %9 ]
  ret i32 %11
}

; Function Attrs: inlinehint nounwind uwtable
define internal ptr @ExecClearTuple(ptr noundef %0) #5 {
  %2 = alloca ptr, align 8
  store ptr %0, ptr %2, align 8
  %3 = load ptr, ptr %2, align 8
  %4 = getelementptr inbounds nuw %struct.TupleTableSlot, ptr %3, i32 0, i32 3
  %5 = load ptr, ptr %4, align 8
  %6 = getelementptr inbounds nuw %struct.TupleTableSlotOps, ptr %5, i32 0, i32 3
  %7 = load ptr, ptr %6, align 8
  %8 = load ptr, ptr %2, align 8
  call void %7(ptr noundef %8)
  %9 = load ptr, ptr %2, align 8
  ret ptr %9
}

; Function Attrs: inlinehint nounwind uwtable
define internal ptr @DatumGetPointer(i64 noundef %0) #5 {
  %2 = alloca i64, align 8
  store i64 %0, ptr %2, align 8
  %3 = load i64, ptr %2, align 8
  %4 = inttoptr i64 %3 to ptr
  ret ptr %4
}

; Function Attrs: inlinehint nounwind uwtable
define internal i64 @slot_getattr(ptr noundef %0, i32 noundef %1, ptr noundef %2) #5 {
  %4 = alloca ptr, align 8
  %5 = alloca i32, align 4
  %6 = alloca ptr, align 8
  store ptr %0, ptr %4, align 8
  store i32 %1, ptr %5, align 4
  store ptr %2, ptr %6, align 8
  %7 = load i32, ptr %5, align 4
  %8 = load ptr, ptr %4, align 8
  %9 = getelementptr inbounds nuw %struct.TupleTableSlot, ptr %8, i32 0, i32 2
  %10 = load i16, ptr %9, align 2
  %11 = sext i16 %10 to i32
  %12 = icmp sgt i32 %7, %11
  br i1 %12, label %13, label %16

13:                                               ; preds = %3
  %14 = load ptr, ptr %4, align 8
  %15 = load i32, ptr %5, align 4
  call void @slot_getsomeattrs(ptr noundef %14, i32 noundef %15)
  br label %16

16:                                               ; preds = %13, %3
  %17 = load ptr, ptr %4, align 8
  %18 = getelementptr inbounds nuw %struct.TupleTableSlot, ptr %17, i32 0, i32 6
  %19 = load ptr, ptr %18, align 8
  %20 = load i32, ptr %5, align 4
  %21 = sub i32 %20, 1
  %22 = sext i32 %21 to i64
  %23 = getelementptr inbounds i8, ptr %19, i64 %22
  %24 = load i8, ptr %23, align 1, !range !4, !noundef !5
  %25 = trunc i8 %24 to i1
  %26 = load ptr, ptr %6, align 8
  %27 = zext i1 %25 to i8
  store i8 %27, ptr %26, align 1
  %28 = load ptr, ptr %4, align 8
  %29 = getelementptr inbounds nuw %struct.TupleTableSlot, ptr %28, i32 0, i32 5
  %30 = load ptr, ptr %29, align 8
  %31 = load i32, ptr %5, align 4
  %32 = sub i32 %31, 1
  %33 = sext i32 %32 to i64
  %34 = getelementptr inbounds i64, ptr %30, i64 %33
  %35 = load i64, ptr %34, align 8
  ret i64 %35
}

; Function Attrs: nounwind uwtable
define internal void @check_publications_origin(ptr noundef %0, ptr noundef %1, i1 noundef zeroext %2, ptr noundef %3, ptr noundef %4, i32 noundef %5, ptr noundef %6) #0 {
  %8 = alloca ptr, align 8
  %9 = alloca ptr, align 8
  %10 = alloca i8, align 1
  %11 = alloca ptr, align 8
  %12 = alloca ptr, align 8
  %13 = alloca i32, align 4
  %14 = alloca ptr, align 8
  %15 = alloca ptr, align 8
  %16 = alloca %struct.StringInfoData, align 8
  %17 = alloca ptr, align 8
  %18 = alloca [1 x i32], align 4
  %19 = alloca ptr, align 8
  %20 = alloca i32, align 4
  %21 = alloca i32, align 4
  %22 = alloca i32, align 4
  %23 = alloca ptr, align 8
  %24 = alloca ptr, align 8
  %25 = alloca ptr, align 8
  %26 = alloca i8, align 1
  %27 = alloca ptr, align 8
  store ptr %0, ptr %8, align 8
  store ptr %1, ptr %9, align 8
  %28 = zext i1 %2 to i8
  store i8 %28, ptr %10, align 1
  store ptr %3, ptr %11, align 8
  store ptr %4, ptr %12, align 8
  store i32 %5, ptr %13, align 4
  store ptr %6, ptr %14, align 8
  call void @llvm.lifetime.start.p0(i64 8, ptr %15) #10
  call void @llvm.lifetime.start.p0(i64 24, ptr %16) #10
  call void @llvm.lifetime.start.p0(i64 8, ptr %17) #10
  call void @llvm.lifetime.start.p0(i64 4, ptr %18) #10
  call void @llvm.memcpy.p0.p0.i64(ptr align 4 %18, ptr align 4 @__const.check_publications_origin.tableRow, i64 4, i1 false)
  call void @llvm.lifetime.start.p0(i64 8, ptr %19) #10
  store ptr null, ptr %19, align 8
  call void @llvm.lifetime.start.p0(i64 4, ptr %20) #10
  %29 = load i8, ptr %10, align 1, !range !4, !noundef !5
  %30 = trunc i8 %29 to i1
  br i1 %30, label %31, label %38

31:                                               ; preds = %7
  %32 = load ptr, ptr %11, align 8
  %33 = icmp ne ptr %32, null
  br i1 %33, label %34, label %38

34:                                               ; preds = %31
  %35 = load ptr, ptr %11, align 8
  %36 = call i32 @pg_strcasecmp(ptr noundef %35, ptr noundef @.str.58)
  %37 = icmp ne i32 %36, 0
  br i1 %37, label %38, label %39

38:                                               ; preds = %34, %31, %7
  store i32 1, ptr %21, align 4
  br label %143

39:                                               ; preds = %34
  call void @initStringInfo(ptr noundef %16)
  call void @appendStringInfoString(ptr noundef %16, ptr noundef @.str.91)
  %40 = load ptr, ptr %9, align 8
  call void @GetPublicationsStr(ptr noundef %40, ptr noundef %16, i1 noundef zeroext true)
  call void @appendStringInfoString(ptr noundef %16, ptr noundef @.str.92)
  store i32 0, ptr %20, align 4
  br label %41

41:                                               ; preds = %58, %39
  %42 = load i32, ptr %20, align 4
  %43 = load i32, ptr %13, align 4
  %44 = icmp slt i32 %42, %43
  br i1 %44, label %45, label %61

45:                                               ; preds = %41
  call void @llvm.lifetime.start.p0(i64 4, ptr %22) #10
  %46 = load ptr, ptr %12, align 8
  %47 = load i32, ptr %20, align 4
  %48 = sext i32 %47 to i64
  %49 = getelementptr inbounds i32, ptr %46, i64 %48
  %50 = load i32, ptr %49, align 4
  store i32 %50, ptr %22, align 4
  call void @llvm.lifetime.start.p0(i64 8, ptr %23) #10
  %51 = load i32, ptr %22, align 4
  %52 = call i32 @get_rel_namespace(i32 noundef %51)
  %53 = call ptr @get_namespace_name(i32 noundef %52)
  store ptr %53, ptr %23, align 8
  call void @llvm.lifetime.start.p0(i64 8, ptr %24) #10
  %54 = load i32, ptr %22, align 4
  %55 = call ptr @get_rel_name(i32 noundef %54)
  store ptr %55, ptr %24, align 8
  %56 = load ptr, ptr %23, align 8
  %57 = load ptr, ptr %24, align 8
  call void (ptr, ptr, ...) @appendStringInfo(ptr noundef %16, ptr noundef @.str.93, ptr noundef %56, ptr noundef %57)
  call void @llvm.lifetime.end.p0(i64 8, ptr %24) #10
  call void @llvm.lifetime.end.p0(i64 8, ptr %23) #10
  call void @llvm.lifetime.end.p0(i64 4, ptr %22) #10
  br label %58

58:                                               ; preds = %45
  %59 = load i32, ptr %20, align 4
  %60 = add i32 %59, 1
  store i32 %60, ptr %20, align 4
  br label %41, !llvm.loop !10

61:                                               ; preds = %41
  %62 = load ptr, ptr @WalReceiverFunctions, align 8
  %63 = getelementptr inbounds nuw %struct.WalReceiverFunctionsType, ptr %62, i32 0, i32 15
  %64 = load ptr, ptr %63, align 8
  %65 = load ptr, ptr %8, align 8
  %66 = getelementptr inbounds nuw %struct.StringInfoData, ptr %16, i32 0, i32 0
  %67 = load ptr, ptr %66, align 8
  %68 = getelementptr inbounds [1 x i32], ptr %18, i64 0, i64 0
  %69 = call ptr %64(ptr noundef %65, ptr noundef %67, i32 noundef 1, ptr noundef %68)
  store ptr %69, ptr %15, align 8
  %70 = getelementptr inbounds nuw %struct.StringInfoData, ptr %16, i32 0, i32 0
  %71 = load ptr, ptr %70, align 8
  call void @pfree(ptr noundef %71)
  %72 = load ptr, ptr %15, align 8
  %73 = getelementptr inbounds nuw %struct.WalRcvExecResult, ptr %72, i32 0, i32 0
  %74 = load i32, ptr %73, align 8
  %75 = icmp ne i32 %74, 2
  br i1 %75, label %76, label %91

76:                                               ; preds = %61
  br label %77

77:                                               ; preds = %76
  br i1 true, label %78, label %80

78:                                               ; preds = %77
  %79 = call zeroext i1 @errstart_cold(i32 noundef 21, ptr noundef null) #11
  br i1 %79, label %82, label %88

80:                                               ; preds = %77
  %81 = call zeroext i1 @errstart(i32 noundef 21, ptr noundef null)
  br i1 %81, label %82, label %88

82:                                               ; preds = %80, %78
  %83 = call i32 @errcode(i32 noundef 100663808)
  %84 = load ptr, ptr %15, align 8
  %85 = getelementptr inbounds nuw %struct.WalRcvExecResult, ptr %84, i32 0, i32 2
  %86 = load ptr, ptr %85, align 8
  %87 = call i32 (ptr, ...) @errmsg(ptr noundef @.str.94, ptr noundef %86)
  call void @errfinish(ptr noundef @.str.4, i32 noundef 2148, ptr noundef @__func__.check_publications_origin)
  br label %88

88:                                               ; preds = %82, %80, %78
  unreachable

89:                                               ; No predecessors!
  br label %90

90:                                               ; preds = %89
  br label %91

91:                                               ; preds = %90, %61
  %92 = load ptr, ptr %15, align 8
  %93 = getelementptr inbounds nuw %struct.WalRcvExecResult, ptr %92, i32 0, i32 4
  %94 = load ptr, ptr %93, align 8
  %95 = call ptr @MakeSingleTupleTableSlot(ptr noundef %94, ptr noundef @TTSOpsMinimalTuple)
  store ptr %95, ptr %17, align 8
  br label %96

96:                                               ; preds = %102, %91
  %97 = load ptr, ptr %15, align 8
  %98 = getelementptr inbounds nuw %struct.WalRcvExecResult, ptr %97, i32 0, i32 3
  %99 = load ptr, ptr %98, align 8
  %100 = load ptr, ptr %17, align 8
  %101 = call zeroext i1 @tuplestore_gettupleslot(ptr noundef %99, i1 noundef zeroext true, i1 noundef zeroext false, ptr noundef %100)
  br i1 %101, label %102, label %113

102:                                              ; preds = %96
  call void @llvm.lifetime.start.p0(i64 8, ptr %25) #10
  call void @llvm.lifetime.start.p0(i64 1, ptr %26) #10
  %103 = load ptr, ptr %17, align 8
  %104 = call i64 @slot_getattr(ptr noundef %103, i32 noundef 1, ptr noundef %26)
  %105 = call ptr @DatumGetPointer(i64 noundef %104)
  %106 = call ptr @text_to_cstring(ptr noundef %105)
  store ptr %106, ptr %25, align 8
  %107 = load ptr, ptr %17, align 8
  %108 = call ptr @ExecClearTuple(ptr noundef %107)
  %109 = load ptr, ptr %19, align 8
  %110 = load ptr, ptr %25, align 8
  %111 = call ptr @makeString(ptr noundef %110)
  %112 = call ptr @list_append_unique(ptr noundef %109, ptr noundef %111)
  store ptr %112, ptr %19, align 8
  call void @llvm.lifetime.end.p0(i64 1, ptr %26) #10
  call void @llvm.lifetime.end.p0(i64 8, ptr %25) #10
  br label %96, !llvm.loop !11

113:                                              ; preds = %96
  %114 = load ptr, ptr %19, align 8
  %115 = icmp ne ptr %114, null
  br i1 %115, label %116, label %140

116:                                              ; preds = %113
  call void @llvm.lifetime.start.p0(i64 8, ptr %27) #10
  %117 = call ptr @makeStringInfo()
  store ptr %117, ptr %27, align 8
  %118 = load ptr, ptr %19, align 8
  %119 = load ptr, ptr %27, align 8
  call void @GetPublicationsStr(ptr noundef %118, ptr noundef %119, i1 noundef zeroext false)
  br label %120

120:                                              ; preds = %116
  br i1 false, label %121, label %123

121:                                              ; preds = %120
  %122 = call zeroext i1 @errstart_cold(i32 noundef 19, ptr noundef null) #11
  br i1 %122, label %125, label %137

123:                                              ; preds = %120
  %124 = call zeroext i1 @errstart(i32 noundef 19, ptr noundef null)
  br i1 %124, label %125, label %137

125:                                              ; preds = %123, %121
  %126 = call i32 @errcode(i32 noundef 325)
  %127 = load ptr, ptr %14, align 8
  %128 = call i32 (ptr, ...) @errmsg(ptr noundef @.str.95, ptr noundef %127)
  %129 = load ptr, ptr %19, align 8
  %130 = call i32 @list_length(ptr noundef %129)
  %131 = sext i32 %130 to i64
  %132 = load ptr, ptr %27, align 8
  %133 = getelementptr inbounds nuw %struct.StringInfoData, ptr %132, i32 0, i32 0
  %134 = load ptr, ptr %133, align 8
  %135 = call i32 (ptr, ptr, i64, ...) @errdetail_plural(ptr noundef @.str.96, ptr noundef @.str.97, i64 noundef %131, ptr noundef %134)
  %136 = call i32 (ptr, ...) @errhint(ptr noundef @.str.98)
  call void @errfinish(ptr noundef @.str.4, i32 noundef 2188, ptr noundef @__func__.check_publications_origin)
  br label %137

137:                                              ; preds = %125, %123, %121
  br label %138

138:                                              ; preds = %137
  br label %139

139:                                              ; preds = %138
  call void @llvm.lifetime.end.p0(i64 8, ptr %27) #10
  br label %140

140:                                              ; preds = %139, %113
  %141 = load ptr, ptr %17, align 8
  call void @ExecDropSingleTupleTableSlot(ptr noundef %141)
  %142 = load ptr, ptr %15, align 8
  call void @walrcv_clear_result(ptr noundef %142)
  store i32 0, ptr %21, align 4
  br label %143

143:                                              ; preds = %140, %38
  call void @llvm.lifetime.end.p0(i64 4, ptr %20) #10
  call void @llvm.lifetime.end.p0(i64 8, ptr %19) #10
  call void @llvm.lifetime.end.p0(i64 4, ptr %18) #10
  call void @llvm.lifetime.end.p0(i64 8, ptr %17) #10
  call void @llvm.lifetime.end.p0(i64 24, ptr %16) #10
  call void @llvm.lifetime.end.p0(i64 8, ptr %15) #10
  %144 = load i32, ptr %21, align 4
  switch i32 %144, label %146 [
    i32 0, label %145
    i32 1, label %145
  ]

145:                                              ; preds = %143, %143
  ret void

146:                                              ; preds = %143
  unreachable
}