; Function Attrs: nounwind uwtable
define internal fastcc void @check_publications_origin(ptr noundef nonnull %0, ptr noundef %1, i1 noundef zeroext %2, ptr noundef %3, ptr noundef readonly captures(none) %4, i32 noundef %5, ptr noundef %6) unnamed_addr #0 {
  %8 = alloca %struct.StringInfoData, align 8
  %9 = alloca [1 x i32], align 4
  call void @llvm.lifetime.start.p0(i64 24, ptr nonnull %8) #10
  call void @llvm.lifetime.start.p0(i64 4, ptr nonnull %9) #10
  store i32 25, ptr %9, align 4
  %10 = icmp ne ptr %3, null
  %or.cond = and i1 %2, %10
  br i1 %or.cond, label %11, label %77

11:                                               ; preds = %7
  %12 = tail call i32 @pg_strcasecmp(ptr noundef nonnull %3, ptr noundef nonnull @.str.58) #10
  %.not = icmp eq i32 %12, 0
  br i1 %.not, label %13, label %77

13:                                               ; preds = %11
  call void @initStringInfo(ptr noundef nonnull %8) #10
  call void @appendStringInfoString(ptr noundef nonnull %8, ptr noundef nonnull @.str.91) #10
  call void @GetPublicationsStr(ptr noundef %1, ptr noundef nonnull %8, i1 noundef zeroext true) #10
  call void @appendStringInfoString(ptr noundef nonnull %8, ptr noundef nonnull @.str.92) #10
  %14 = icmp sgt i32 %5, 0
  br i1 %14, label %.lr.ph.preheader, label %._crit_edge

.lr.ph.preheader:                                 ; preds = %13
  %wide.trip.count = zext nneg i32 %5 to i64
  br label %.lr.ph

.lr.ph:                                           ; preds = %.lr.ph.preheader, %.lr.ph
  %indvars.iv = phi i64 [ 0, %.lr.ph.preheader ], [ %indvars.iv.next, %.lr.ph ]
  %15 = getelementptr inbounds nuw i32, ptr %4, i64 %indvars.iv
  %16 = load i32, ptr %15, align 4
  %17 = call i32 @get_rel_namespace(i32 noundef %16) #10
  %18 = call ptr @get_namespace_name(i32 noundef %17) #10
  %19 = call ptr @get_rel_name(i32 noundef %16) #10
  call void (ptr, ptr, ...) @appendStringInfo(ptr noundef nonnull %8, ptr noundef nonnull @.str.93, ptr noundef %18, ptr noundef %19) #10
  %indvars.iv.next = add nuw nsw i64 %indvars.iv, 1
  %exitcond.not = icmp eq i64 %indvars.iv.next, %wide.trip.count
  br i1 %exitcond.not, label %._crit_edge, label %.lr.ph, !llvm.loop !8

._crit_edge:                                      ; preds = %.lr.ph, %13
  %20 = load ptr, ptr @WalReceiverFunctions, align 8
  %21 = getelementptr inbounds nuw i8, ptr %20, i64 120
  %22 = load ptr, ptr %21, align 8
  %23 = load ptr, ptr %8, align 8
  %24 = call ptr %22(ptr noundef nonnull %0, ptr noundef %23, i32 noundef 1, ptr noundef nonnull %9) #10
  %25 = load ptr, ptr %8, align 8
  call void @pfree(ptr noundef %25) #10
  %26 = load i32, ptr %24, align 8
  %.not33 = icmp eq i32 %26, 2
  br i1 %.not33, label %33, label %27

27:                                               ; preds = %._crit_edge
  %28 = call zeroext i1 @errstart_cold(i32 noundef 21, ptr noundef null) #11
  call void @llvm.assume(i1 %28)
  %29 = call i32 @errcode(i32 noundef 100663808) #10
  %30 = getelementptr inbounds nuw i8, ptr %24, i64 8
  %31 = load ptr, ptr %30, align 8
  %32 = call i32 (ptr, ...) @errmsg(ptr noundef nonnull @.str.94, ptr noundef %31) #10
  call void @errfinish(ptr noundef nonnull @.str.4, i32 noundef 2148, ptr noundef nonnull @__func__.check_publications_origin) #10
  unreachable

33:                                               ; preds = %._crit_edge
  %34 = getelementptr inbounds nuw i8, ptr %24, i64 24
  %35 = load ptr, ptr %34, align 8
  %36 = call ptr @MakeSingleTupleTableSlot(ptr noundef %35, ptr noundef nonnull @TTSOpsMinimalTuple) #10
  %37 = getelementptr inbounds nuw i8, ptr %24, i64 16
  %38 = load ptr, ptr %37, align 8
  %39 = call zeroext i1 @tuplestore_gettupleslot(ptr noundef %38, i1 noundef zeroext true, i1 noundef zeroext false, ptr noundef %36) #10
  br i1 %39, label %.lr.ph39, label %._crit_edge40.thread

.lr.ph39:                                         ; preds = %33
  %40 = getelementptr inbounds nuw i8, ptr %36, i64 6
  %41 = getelementptr inbounds nuw i8, ptr %36, i64 24
  %42 = getelementptr inbounds nuw i8, ptr %36, i64 8
  br label %43

43:                                               ; preds = %.lr.ph39, %slot_getattr.exit
  %.037 = phi ptr [ null, %.lr.ph39 ], [ %54, %slot_getattr.exit ]
  %44 = load i16, ptr %40, align 2
  %45 = icmp slt i16 %44, 1
  br i1 %45, label %slot_getsomeattrs.exit.i, label %slot_getattr.exit

slot_getsomeattrs.exit.i:                         ; preds = %43
  call void @slot_getsomeattrs_int(ptr noundef nonnull %36, i32 noundef range(i32 1, 3) 1) #10
  br label %slot_getattr.exit

slot_getattr.exit:                                ; preds = %43, %slot_getsomeattrs.exit.i
  %46 = load ptr, ptr %41, align 8
  %47 = load i64, ptr %46, align 8
  %48 = inttoptr i64 %47 to ptr
  %49 = call ptr @text_to_cstring(ptr noundef %48) #10
  %50 = load ptr, ptr %42, align 8
  %51 = getelementptr inbounds nuw i8, ptr %50, i64 24
  %52 = load ptr, ptr %51, align 8
  call void %52(ptr noundef nonnull %36) #10
  %53 = call ptr @makeString(ptr noundef %49) #10
  %54 = call ptr @list_append_unique(ptr noundef %.037, ptr noundef %53) #10
  %55 = load ptr, ptr %37, align 8
  %56 = call zeroext i1 @tuplestore_gettupleslot(ptr noundef %55, i1 noundef zeroext true, i1 noundef zeroext false, ptr noundef nonnull %36) #10
  br i1 %56, label %43, label %._crit_edge40, !llvm.loop !9

._crit_edge40:                                    ; preds = %slot_getattr.exit
  %.not34 = icmp eq ptr %54, null
  br i1 %.not34, label %._crit_edge40.thread, label %57

57:                                               ; preds = %._crit_edge40
  %58 = call ptr @makeStringInfo() #10
  call void @GetPublicationsStr(ptr noundef nonnull %54, ptr noundef %58, i1 noundef zeroext false) #10
  %59 = call zeroext i1 @errstart(i32 noundef 19, ptr noundef null) #10
  br i1 %59, label %list_length.exit, label %._crit_edge40.thread

list_length.exit:                                 ; preds = %57
  %60 = call i32 @errcode(i32 noundef 325) #10
  %61 = call i32 (ptr, ...) @errmsg(ptr noundef nonnull @.str.95, ptr noundef %6) #10
  %62 = getelementptr inbounds nuw i8, ptr %54, i64 4
  %63 = load i32, ptr %62, align 4
  %64 = sext i32 %63 to i64
  %65 = load ptr, ptr %58, align 8
  %66 = call i32 (ptr, ptr, i64, ...) @errdetail_plural(ptr noundef nonnull @.str.96, ptr noundef nonnull @.str.97, i64 noundef %64, ptr noundef %65) #10
  %67 = call i32 (ptr, ...) @errhint(ptr noundef nonnull @.str.98) #10
  call void @errfinish(ptr noundef nonnull @.str.4, i32 noundef 2188, ptr noundef nonnull @__func__.check_publications_origin) #10
  br label %._crit_edge40.thread

._crit_edge40.thread:                             ; preds = %33, %._crit_edge40, %list_length.exit, %57
  call void @ExecDropSingleTupleTableSlot(ptr noundef %36) #10
  %68 = getelementptr inbounds nuw i8, ptr %24, i64 8
  %69 = load ptr, ptr %68, align 8
  %.not11.i = icmp eq ptr %69, null
  br i1 %.not11.i, label %71, label %70

70:                                               ; preds = %._crit_edge40.thread
  call void @pfree(ptr noundef nonnull %69) #10
  br label %71

71:                                               ; preds = %70, %._crit_edge40.thread
  %72 = load ptr, ptr %37, align 8
  %.not12.i = icmp eq ptr %72, null
  br i1 %.not12.i, label %74, label %73

73:                                               ; preds = %71
  call void @tuplestore_end(ptr noundef nonnull %72) #10
  br label %74

74:                                               ; preds = %73, %71
  %75 = load ptr, ptr %34, align 8
  %.not13.i = icmp eq ptr %75, null
  br i1 %.not13.i, label %walrcv_clear_result.exit, label %76

76:                                               ; preds = %74
  call void @FreeTupleDesc(ptr noundef nonnull %75) #10
  br label %walrcv_clear_result.exit

walrcv_clear_result.exit:                         ; preds = %74, %76
  call void @pfree(ptr noundef nonnull %24) #10
  br label %77

77:                                               ; preds = %7, %11, %walrcv_clear_result.exit
  call void @llvm.lifetime.end.p0(i64 4, ptr nonnull %9) #10
  call void @llvm.lifetime.end.p0(i64 24, ptr nonnull %8) #10
  ret void
}